target datalayout = "e-m:e-p270:32:32-p271:32:32-p272:64:64-i64:64-i128:128-f80:128-n8:16:32:64-S128"
target triple = "x86_64-unknown-linux-gnu"

%"class.std::__cxx11::basic_string" = type { %"struct.std::__cxx11::basic_string<char>::_Alloc_hider", i64, %union.anon }
%"struct.std::__cxx11::basic_string<char>::_Alloc_hider" = type { ptr }
%union.anon = type { i64, [8 x i8] }
%"class.std::allocator.31" = type { i8 }
%"class.std::basic_string_view" = type { i64, ptr }
%"struct.std::__cxx11::basic_string<char>::__sv_wrapper" = type { %"class.std::basic_string_view" }

; Function Attrs: mustprogress uwtable
define linkonce_odr hidden void @_ZNSt7__cxx1112basic_stringIcSt11char_traitsIcESaIcEEC2ISt17basic_string_viewIcS2_EvEERKT_RKS3_(ptr noundef nonnull align 8 dereferenceable(32) %this, ptr noundef nonnull align 8 dereferenceable(16) %__t, ptr noundef nonnull align 1 dereferenceable(1) %__a) unnamed_addr #4 comdat align 2 {
entry:
  %this.addr = alloca ptr, align 8
  %__t.addr = alloca ptr, align 8
  %__a.addr = alloca ptr, align 8
  %agg.tmp = alloca %"struct.std::__cxx11::basic_string<char>::__sv_wrapper", align 8
  %agg.tmp2 = alloca %"class.std::basic_string_view", align 8
  %agg.tmp3 = alloca %"class.std::basic_string_view", align 8
  store ptr %this, ptr %this.addr, align 8
  store ptr %__t, ptr %__t.addr, align 8
  store ptr %__a, ptr %__a.addr, align 8
  %this1 = load ptr, ptr %this.addr, align 8
  %0 = load ptr, ptr %__t.addr, align 8
  call void @llvm.memcpy.p0.p0.i64(ptr align 8 %agg.tmp3, ptr align 8 %0, i64 16, i1 false)
  %1 = getelementptr inbounds { i64, ptr }, ptr %agg.tmp3, i32 0, i32 0
  %2 = load i64, ptr %1, align 8
  %3 = getelementptr inbounds { i64, ptr }, ptr %agg.tmp3, i32 0, i32 1
  %4 = load ptr, ptr %3, align 8
  %call = call { i64, ptr } @_ZNSt7__cxx1112basic_stringIcSt11char_traitsIcESaIcEE17_S_to_string_viewESt17basic_string_viewIcS2_E(i64 %2, ptr %4) #3
  %5 = getelementptr inbounds { i64, ptr }, ptr %agg.tmp2, i32 0, i32 0
  %6 = extractvalue { i64, ptr } %call, 0
  store i64 %6, ptr %5, align 8
  %7 = getelementptr inbounds { i64, ptr }, ptr %agg.tmp2, i32 0, i32 1
  %8 = extractvalue { i64, ptr } %call, 1
  store ptr %8, ptr %7, align 8
  %9 = getelementptr inbounds { i64, ptr }, ptr %agg.tmp2, i32 0, i32 0
  %10 = load i64, ptr %9, align 8
  %11 = getelementptr inbounds { i64, ptr }, ptr %agg.tmp2, i32 0, i32 1
  %12 = load ptr, ptr %11, align 8
  call void @_ZNSt7__cxx1112basic_stringIcSt11char_traitsIcESaIcEE12__sv_wrapperC1ESt17basic_string_viewIcS2_E(ptr noundef nonnull align 8 dereferenceable(16) %agg.tmp, i64 %10, ptr %12) #3
  %13 = load ptr, ptr %__a.addr, align 8
  %14 = getelementptr inbounds { i64, ptr }, ptr %agg.tmp, i32 0, i32 0
  %15 = load i64, ptr %14, align 8
  %16 = getelementptr inbounds { i64, ptr }, ptr %agg.tmp, i32 0, i32 1
  %17 = load ptr, ptr %16, align 8
  call void @_ZNSt7__cxx1112basic_stringIcSt11char_traitsIcESaIcEEC2ENS4_12__sv_wrapperERKS3_(ptr noundef nonnull align 8 dereferenceable(32) %this1, i64 %15, ptr %17, ptr noundef nonnull align 1 dereferenceable(1) %13)
  ret void
}

; Function Attrs: mustprogress uwtable
define linkonce_odr hidden void @_ZN6google8protobuf8compiler4java17ClassNameResolver21GetImmutableClassNameINS0_14EnumDescriptorEEENSt7__cxx1112basic_stringIcSt11char_traitsIcESaIcEEEPKT_(ptr noalias sret(%"class.std::__cxx11::basic_string") align 8 %agg.result, ptr noundef nonnull align 8 dereferenceable(112) %this, ptr noundef %descriptor) #4 comdat align 2 {
entry:
  %result.ptr = alloca ptr, align 8
  %this.addr = alloca ptr, align 8
  %descriptor.addr = alloca ptr, align 8
  store ptr %agg.result, ptr %result.ptr, align 8
  store ptr %this, ptr %this.addr, align 8
  store ptr %descriptor, ptr %descriptor.addr, align 8
  %this1 = load ptr, ptr %this.addr, align 8
  %0 = load ptr, ptr %descriptor.addr, align 8
  call void @_ZN6google8protobuf8compiler4java17ClassNameResolver12GetClassNameB5cxx11EPKNS0_14EnumDescriptorEb(ptr sret(%"class.std::__cxx11::basic_string") align 8 %agg.result, ptr noundef nonnull align 8 dereferenceable(112) %this1, ptr noundef %0, i1 noundef zeroext true)
  ret void
}

; Function Attrs: mustprogress uwtable
define linkonce_odr hidden void @_ZN6google8protobuf8compiler4java17ClassNameResolver21GetImmutableClassNameINS0_10DescriptorEEENSt7__cxx1112basic_stringIcSt11char_traitsIcESaIcEEEPKT_(ptr noalias sret(%"class.std::__cxx11::basic_string") align 8 %agg.result, ptr noundef nonnull align 8 dereferenceable(112) %this, ptr noundef %descriptor) #4 comdat align 2 {
entry:
  %result.ptr = alloca ptr, align 8
  %this.addr = alloca ptr, align 8
  %descriptor.addr = alloca ptr, align 8
  store ptr %agg.result, ptr %result.ptr, align 8
  store ptr %this, ptr %this.addr, align 8
  store ptr %descriptor, ptr %descriptor.addr, align 8
  %this1 = load ptr, ptr %this.addr, align 8
  %0 = load ptr, ptr %descriptor.addr, align 8
  call void @_ZN6google8protobuf8compiler4java17ClassNameResolver12GetClassNameB5cxx11EPKNS0_10DescriptorEb(ptr sret(%"class.std::__cxx11::basic_string") align 8 %agg.result, ptr noundef nonnull align 8 dereferenceable(112) %this1, ptr noundef %0, i1 noundef zeroext true)
  ret void
}

; Function Attrs: mustprogress uwtable
define internal void @_ZN6google8protobuf8compiler4java12_GLOBAL__N_18TypeNameB5cxx11EPKNS0_15FieldDescriptorEPNS2_17ClassNameResolverEb(ptr noalias sret(%"class.std::__cxx11::basic_string") align 8 %agg.result, ptr noundef %field, ptr noundef %name_resolver, i1 noundef zeroext %boxed) #4 personality ptr @__gxx_personality_v0 {
entry:
  %result.ptr = alloca ptr, align 8
  %field.addr = alloca ptr, align 8
  %name_resolver.addr = alloca ptr, align 8
  %boxed.addr = alloca i8, align 1
  %ref.tmp = alloca %"class.std::basic_string_view", align 8
  %ref.tmp11 = alloca %"class.std::allocator.31", align 1
  %exn.slot = alloca ptr, align 8
  %ehselector.slot = alloca i32, align 4
  store ptr %agg.result, ptr %result.ptr, align 8
  store ptr %field, ptr %field.addr, align 8
  store ptr %name_resolver, ptr %name_resolver.addr, align 8
  %frombool = zext i1 %boxed to i8
  store i8 %frombool, ptr %boxed.addr, align 1
  %0 = load ptr, ptr %field.addr, align 8
  %call = call noundef i32 @_ZN6google8protobuf8compiler4java11GetJavaTypeEPKNS0_15FieldDescriptorE(ptr noundef %0)
  %cmp = icmp eq i32 %call, 8
  br i1 %cmp, label %if.then, label %if.else

if.then:                                          ; preds = %entry
  %1 = load ptr, ptr %name_resolver.addr, align 8
  %2 = load ptr, ptr %field.addr, align 8
  %call1 = call noundef ptr @_ZNK6google8protobuf15FieldDescriptor12message_typeEv(ptr noundef nonnull align 8 dereferenceable(88) %2)
  call void @_ZN6google8protobuf8compiler4java17ClassNameResolver21GetImmutableClassNameINS0_10DescriptorEEENSt7__cxx1112basic_stringIcSt11char_traitsIcESaIcEEEPKT_(ptr sret(%"class.std::__cxx11::basic_string") align 8 %agg.result, ptr noundef nonnull align 8 dereferenceable(112) %1, ptr noundef %call1)
  br label %return

if.else:                                          ; preds = %entry
  %3 = load ptr, ptr %field.addr, align 8
  %call2 = call noundef i32 @_ZN6google8protobuf8compiler4java11GetJavaTypeEPKNS0_15FieldDescriptorE(ptr noundef %3)
  %cmp3 = icmp eq i32 %call2, 7
  br i1 %cmp3, label %if.then4, label %if.else6

if.then4:                                         ; preds = %if.else
  %4 = load ptr, ptr %name_resolver.addr, align 8
  %5 = load ptr, ptr %field.addr, align 8
  %call5 = call noundef ptr @_ZNK6google8protobuf15FieldDescriptor9enum_typeEv(ptr noundef nonnull align 8 dereferenceable(88) %5)
  call void @_ZN6google8protobuf8compiler4java17ClassNameResolver21GetImmutableClassNameINS0_14EnumDescriptorEEENSt7__cxx1112basic_stringIcSt11char_traitsIcESaIcEEEPKT_(ptr sret(%"class.std::__cxx11::basic_string") align 8 %agg.result, ptr noundef nonnull align 8 dereferenceable(112) %4, ptr noundef %call5)
  br label %return

if.else6:                                         ; preds = %if.else
  %6 = load i8, ptr %boxed.addr, align 1
  %tobool = trunc i8 %6 to i1
  br i1 %tobool, label %cond.true, label %cond.false

cond.true:                                        ; preds = %if.else6
  %7 = load ptr, ptr %field.addr, align 8
  %call7 = call noundef i32 @_ZN6google8protobuf8compiler4java11GetJavaTypeEPKNS0_15FieldDescriptorE(ptr noundef %7)
  %call8 = call { i64, ptr } @_ZN6google8protobuf8compiler4java22BoxedPrimitiveTypeNameENS2_8JavaTypeE(i32 noundef %call7)
  %8 = getelementptr inbounds { i64, ptr }, ptr %ref.tmp, i32 0, i32 0
  %9 = extractvalue { i64, ptr } %call8, 0
  store i64 %9, ptr %8, align 8
  %10 = getelementptr inbounds { i64, ptr }, ptr %ref.tmp, i32 0, i32 1
  %11 = extractvalue { i64, ptr } %call8, 1
  store ptr %11, ptr %10, align 8
  br label %cond.end

cond.false:                                       ; preds = %if.else6
  %12 = load ptr, ptr %field.addr, align 8
  %call9 = call noundef i32 @_ZN6google8protobuf8compiler4java11GetJavaTypeEPKNS0_15FieldDescriptorE(ptr noundef %12)
  %call10 = call { i64, ptr } @_ZN6google8protobuf8compiler4java17PrimitiveTypeNameENS2_8JavaTypeE(i32 noundef %call9)
  %13 = getelementptr inbounds { i64, ptr }, ptr %ref.tmp, i32 0, i32 0
  %14 = extractvalue { i64, ptr } %call10, 0
  store i64 %14, ptr %13, align 8
  %15 = getelementptr inbounds { i64, ptr }, ptr %ref.tmp, i32 0, i32 1
  %16 = extractvalue { i64, ptr } %call10, 1
  store ptr %16, ptr %15, align 8
  br label %cond.end

cond.end:                                         ; preds = %cond.false, %cond.true
  call void @_ZNSaIcEC1Ev(ptr noundef nonnull align 1 dereferenceable(1) %ref.tmp11) #3
  invoke void @_ZNSt7__cxx1112basic_stringIcSt11char_traitsIcESaIcEEC2ISt17basic_string_viewIcS2_EvEERKT_RKS3_(ptr noundef nonnull align 8 dereferenceable(32) %agg.result, ptr noundef nonnull align 8 dereferenceable(16) %ref.tmp, ptr noundef nonnull align 1 dereferenceable(1) %ref.tmp11)
          to label %invoke.cont unwind label %lpad

invoke.cont:                                      ; preds = %cond.end
  call void @_ZNSaIcED1Ev(ptr noundef nonnull align 1 dereferenceable(1) %ref.tmp11) #3
  br label %return

lpad:                                             ; preds = %cond.end
  %17 = landingpad { ptr, i32 }
          cleanup
  %18 = extractvalue { ptr, i32 } %17, 0
  store ptr %18, ptr %exn.slot, align 8
  %19 = extractvalue { ptr, i32 } %17, 1
  store i32 %19, ptr %ehselector.slot, align 4
  call void @_ZNSaIcED1Ev(ptr noundef nonnull align 1 dereferenceable(1) %ref.tmp11) #3
  br label %eh.resume

return:                                           ; preds = %invoke.cont, %if.then4, %if.then
  ret void

eh.resume:                                        ; preds = %lpad
  %exn = load ptr, ptr %exn.slot, align 8
  %sel = load i32, ptr %ehselector.slot, align 4
  %lpad.val = insertvalue { ptr, i32 } poison, ptr %exn, 0
  %lpad.val12 = insertvalue { ptr, i32 } %lpad.val, i32 %sel, 1
  resume { ptr, i32 } %lpad.val12
}