; Function Attrs: mustprogress uwtable
define internal fastcc void @_ZN6google8protobuf8compiler4java12_GLOBAL__N_18TypeNameB5cxx11EPKNS0_15FieldDescriptorEPNS2_17ClassNameResolverEb(ptr noalias align 8 %agg.result, ptr noundef %field, ptr noundef %name_resolver, i1 noundef zeroext %boxed) unnamed_addr #3 personality ptr @__gxx_personality_v0 {
entry:
  %agg.tmp.i = alloca %"struct.std::__cxx11::basic_string<char>::__sv_wrapper", align 8
  %ref.tmp11 = alloca %"class.std::allocator.31", align 1
  %call = tail call noundef i32 @_ZN6google8protobuf8compiler4java11GetJavaTypeEPKNS0_15FieldDescriptorE(ptr noundef %field)
  %cmp = icmp eq i32 %call, 8
  br i1 %cmp, label %if.then, label %if.else

if.then:                                          ; preds = %entry
  %call1 = tail call noundef ptr @_ZNK6google8protobuf15FieldDescriptor12message_typeEv(ptr noundef nonnull align 8 dereferenceable(88) %field)
  tail call void @_ZN6google8protobuf8compiler4java17ClassNameResolver12GetClassNameB5cxx11EPKNS0_10DescriptorEb(ptr sret(%"class.std::__cxx11::basic_string") align 8 %agg.result, ptr noundef nonnull align 8 dereferenceable(112) %name_resolver, ptr noundef %call1, i1 noundef zeroext true)
  br label %return

if.else:                                          ; preds = %entry
  %call2 = tail call noundef i32 @_ZN6google8protobuf8compiler4java11GetJavaTypeEPKNS0_15FieldDescriptorE(ptr noundef %field)
  %cmp3 = icmp eq i32 %call2, 7
  br i1 %cmp3, label %if.then4, label %if.else6

if.then4:                                         ; preds = %if.else
  %call5 = tail call noundef ptr @_ZNK6google8protobuf15FieldDescriptor9enum_typeEv(ptr noundef nonnull align 8 dereferenceable(88) %field)
  tail call void @_ZN6google8protobuf8compiler4java17ClassNameResolver12GetClassNameB5cxx11EPKNS0_14EnumDescriptorEb(ptr sret(%"class.std::__cxx11::basic_string") align 8 %agg.result, ptr noundef nonnull align 8 dereferenceable(112) %name_resolver, ptr noundef %call5, i1 noundef zeroext true)
  br label %return

if.else6:                                         ; preds = %if.else
  %call7 = tail call noundef i32 @_ZN6google8protobuf8compiler4java11GetJavaTypeEPKNS0_15FieldDescriptorE(ptr noundef %field)
  br i1 %boxed, label %cond.true, label %cond.false

cond.true:                                        ; preds = %if.else6
  %call8 = tail call { i64, ptr } @_ZN6google8protobuf8compiler4java22BoxedPrimitiveTypeNameENS2_8JavaTypeE(i32 noundef %call7)
  br label %cond.end

cond.false:                                       ; preds = %if.else6
  %call10 = tail call { i64, ptr } @_ZN6google8protobuf8compiler4java17PrimitiveTypeNameENS2_8JavaTypeE(i32 noundef %call7)
  br label %cond.end

cond.end:                                         ; preds = %cond.false, %cond.true
  %call8.pn = phi { i64, ptr } [ %call8, %cond.true ], [ %call10, %cond.false ]
  %ref.tmp.sroa.0.0 = extractvalue { i64, ptr } %call8.pn, 0
  %ref.tmp.sroa.3.0 = extractvalue { i64, ptr } %call8.pn, 1
  call void @_ZNSaIcEC1Ev(ptr noundef nonnull align 1 dereferenceable(1) %ref.tmp11) #21
  call void @llvm.lifetime.start.p0(i64 16, ptr nonnull %agg.tmp.i)
  %call.i = call { i64, ptr } @_ZNSt7__cxx1112basic_stringIcSt11char_traitsIcESaIcEE17_S_to_string_viewESt17basic_string_viewIcS2_E(i64 %ref.tmp.sroa.0.0, ptr %ref.tmp.sroa.3.0) #21
  %0 = extractvalue { i64, ptr } %call.i, 0
  %1 = extractvalue { i64, ptr } %call.i, 1
  call void @_ZNSt7__cxx1112basic_stringIcSt11char_traitsIcESaIcEE12__sv_wrapperC1ESt17basic_string_viewIcS2_E(ptr noundef nonnull align 8 dereferenceable(16) %agg.tmp.i, i64 %0, ptr %1) #21
  %2 = load i64, ptr %agg.tmp.i, align 8
  %3 = getelementptr inbounds i8, ptr %agg.tmp.i, i64 8
  %4 = load ptr, ptr %3, align 8
  invoke void @_ZNSt7__cxx1112basic_stringIcSt11char_traitsIcESaIcEEC2ENS4_12__sv_wrapperERKS3_(ptr noundef nonnull align 8 dereferenceable(32) %agg.result, i64 %2, ptr %4, ptr noundef nonnull align 1 dereferenceable(1) %ref.tmp11)
          to label %invoke.cont unwind label %lpad

invoke.cont:                                      ; preds = %cond.end
  call void @llvm.lifetime.end.p0(i64 16, ptr nonnull %agg.tmp.i)
  call void @_ZNSaIcED1Ev(ptr noundef nonnull align 1 dereferenceable(1) %ref.tmp11) #21
  br label %return

lpad:                                             ; preds = %cond.end
  %5 = landingpad { ptr, i32 }
          cleanup
  call void @_ZNSaIcED1Ev(ptr noundef nonnull align 1 dereferenceable(1) %ref.tmp11) #21
  resume { ptr, i32 } %5

return:                                           ; preds = %invoke.cont, %if.then4, %if.then
  ret void
}